; Function Attrs: nounwind uwtable
define internal void @rv60_flush(ptr noundef readonly captures(none) %0) #1 {
  %2 = getelementptr inbounds nuw i8, ptr %0, i64 32
  %3 = load ptr, ptr %2, align 8, !tbaa !4
  %4 = getelementptr inbounds nuw i8, ptr %3, i64 24
  br label %6

5:                                                ; preds = %6
  ret void

6:                                                ; preds = %1, %6
  %indvars.iv = phi i64 [ 0, %1 ], [ %indvars.iv.next, %6 ]
  %7 = getelementptr inbounds nuw [3 x ptr], ptr %4, i64 0, i64 %indvars.iv
  %8 = load ptr, ptr %7, align 8, !tbaa !35
  tail call void @av_frame_unref(ptr noundef %8) #16
  %indvars.iv.next = add nuw nsw i64 %indvars.iv, 1
  %exitcond.not = icmp eq i64 %indvars.iv.next, 3
  br i1 %exitcond.not, label %5, label %6, !llvm.loop !82
}